; Function Attrs: mustprogress uwtable
define internal void @_ZNK6Assimp3IFC12_GLOBAL__N_112TrimmedCurve14SampleDiscreteERNS0_8TempMeshEdd(ptr noundef nonnull readonly align 8 captures(none) dereferenceable(72) %0, ptr noundef nonnull align 8 dereferenceable(48) %1, double noundef %2, double noundef %3) unnamed_addr #1 align 2 {
  %5 = getelementptr inbounds nuw i8, ptr %0, i64 56
  %6 = load ptr, ptr %5, align 8
  %7 = getelementptr inbounds nuw i8, ptr %0, i64 48
  %8 = load i8, ptr %7, align 8, !range !9, !noundef !39
  %9 = trunc nuw i8 %8 to i1
  %10 = getelementptr inbounds nuw i8, ptr %0, i64 24
  %11 = load double, ptr %10, align 8
  %12 = fadd double %2, %11
  %13 = getelementptr inbounds nuw i8, ptr %0, i64 32
  %14 = load double, ptr %13, align 8
  %15 = fsub double %14, %2
  %16 = select i1 %9, double %12, double %15
  %17 = fadd double %3, %11
  %18 = fsub double %14, %3
  %19 = select i1 %9, double %17, double %18
  %20 = load ptr, ptr %6, align 8
  %21 = getelementptr inbounds nuw i8, ptr %20, i64 56
  %22 = load ptr, ptr %21, align 8
  tail call void %22(ptr noundef nonnull align 8 dereferenceable(24) %6, ptr noundef nonnull align 8 dereferenceable(48) %1, double noundef %16, double noundef %19)
  ret void
}